target datalayout = "e-m:e-p270:32:32-p271:32:32-p272:64:64-i64:64-i128:128-f80:128-n8:16:32:64-S128"
target triple = "x86_64-pc-linux-gnu"

; Function Attrs: inlinehint nounwind uwtable
define internal void @Abc_Tt8IsopCover(ptr noundef %0, ptr noundef %1, i32 noundef %2, ptr noundef %3, ptr noundef %4, ptr noundef %5) #2 {
  %7 = alloca ptr, align 8
  %8 = alloca ptr, align 8
  %9 = alloca i32, align 4
  %10 = alloca ptr, align 8
  %11 = alloca ptr, align 8
  %12 = alloca ptr, align 8
  %13 = alloca [2 x i64], align 16
  %14 = alloca [2 x i64], align 16
  %15 = alloca [2 x i64], align 16
  %16 = alloca [2 x i64], align 16
  %17 = alloca [2 x i64], align 16
  %18 = alloca [2 x i64], align 16
  %19 = alloca [2 x i64], align 16
  %20 = alloca i32, align 4
  %21 = alloca i32, align 4
  %22 = alloca i32, align 4
  %23 = alloca i32, align 4
  store ptr %0, ptr %7, align 8, !tbaa !3
  store ptr %1, ptr %8, align 8, !tbaa !3
  store i32 %2, ptr %9, align 4, !tbaa !8
  store ptr %3, ptr %10, align 8, !tbaa !3
  store ptr %4, ptr %11, align 8, !tbaa !22
  store ptr %5, ptr %12, align 8, !tbaa !22
  %24 = load i32, ptr %9, align 4, !tbaa !8
  %25 = icmp sle i32 %24, 6
  br i1 %25, label %26, label %45

26:                                               ; preds = %6
  %27 = load ptr, ptr %7, align 8, !tbaa !3
  %28 = getelementptr inbounds i64, ptr %27, i64 0
  %29 = load i64, ptr %28, align 8, !tbaa !10
  %30 = load ptr, ptr %8, align 8, !tbaa !3
  %31 = getelementptr inbounds i64, ptr %30, i64 0
  %32 = load i64, ptr %31, align 8, !tbaa !10
  %33 = load i32, ptr %9, align 4, !tbaa !8
  %34 = load ptr, ptr %11, align 8, !tbaa !22
  %35 = load ptr, ptr %12, align 8, !tbaa !22
  %36 = call i64 @Abc_Tt6IsopCover(i64 noundef %29, i64 noundef %32, i32 noundef %33, ptr noundef %34, ptr noundef %35)
  %37 = load ptr, ptr %10, align 8, !tbaa !3
  %38 = getelementptr inbounds i64, ptr %37, i64 3
  store i64 %36, ptr %38, align 8, !tbaa !10
  %39 = load ptr, ptr %10, align 8, !tbaa !3
  %40 = getelementptr inbounds i64, ptr %39, i64 2
  store i64 %36, ptr %40, align 8, !tbaa !10
  %41 = load ptr, ptr %10, align 8, !tbaa !3
  %42 = getelementptr inbounds i64, ptr %41, i64 1
  store i64 %36, ptr %42, align 8, !tbaa !10
  %43 = load ptr, ptr %10, align 8, !tbaa !3
  %44 = getelementptr inbounds i64, ptr %43, i64 0
  store i64 %36, ptr %44, align 8, !tbaa !10
  br label %265

45:                                               ; preds = %6
  %46 = load i32, ptr %9, align 4, !tbaa !8
  %47 = icmp eq i32 %46, 7
  br i1 %47, label %80, label %48

48:                                               ; preds = %45
  %49 = load ptr, ptr %7, align 8, !tbaa !3
  %50 = getelementptr inbounds i64, ptr %49, i64 0
  %51 = load i64, ptr %50, align 8, !tbaa !10
  %52 = load ptr, ptr %7, align 8, !tbaa !3
  %53 = getelementptr inbounds i64, ptr %52, i64 2
  %54 = load i64, ptr %53, align 8, !tbaa !10
  %55 = icmp eq i64 %51, %54
  br i1 %55, label %56, label %96

56:                                               ; preds = %48
  %57 = load ptr, ptr %7, align 8, !tbaa !3
  %58 = getelementptr inbounds i64, ptr %57, i64 1
  %59 = load i64, ptr %58, align 8, !tbaa !10
  %60 = load ptr, ptr %7, align 8, !tbaa !3
  %61 = getelementptr inbounds i64, ptr %60, i64 3
  %62 = load i64, ptr %61, align 8, !tbaa !10
  %63 = icmp eq i64 %59, %62
  br i1 %63, label %64, label %96

64:                                               ; preds = %56
  %65 = load ptr, ptr %8, align 8, !tbaa !3
  %66 = getelementptr inbounds i64, ptr %65, i64 0
  %67 = load i64, ptr %66, align 8, !tbaa !10
  %68 = load ptr, ptr %8, align 8, !tbaa !3
  %69 = getelementptr inbounds i64, ptr %68, i64 2
  %70 = load i64, ptr %69, align 8, !tbaa !10
  %71 = icmp eq i64 %67, %70
  br i1 %71, label %72, label %96

72:                                               ; preds = %64
  %73 = load ptr, ptr %8, align 8, !tbaa !3
  %74 = getelementptr inbounds i64, ptr %73, i64 1
  %75 = load i64, ptr %74, align 8, !tbaa !10
  %76 = load ptr, ptr %8, align 8, !tbaa !3
  %77 = getelementptr inbounds i64, ptr %76, i64 3
  %78 = load i64, ptr %77, align 8, !tbaa !10
  %79 = icmp eq i64 %75, %78
  br i1 %79, label %80, label %96

80:                                               ; preds = %72, %45
  %81 = load ptr, ptr %7, align 8, !tbaa !3
  %82 = load ptr, ptr %8, align 8, !tbaa !3
  %83 = load ptr, ptr %10, align 8, !tbaa !3
  %84 = load ptr, ptr %11, align 8, !tbaa !22
  %85 = load ptr, ptr %12, align 8, !tbaa !22
  call void @Abc_Tt7IsopCover(ptr noundef %81, ptr noundef %82, i32 noundef 7, ptr noundef %83, ptr noundef %84, ptr noundef %85)
  %86 = load ptr, ptr %10, align 8, !tbaa !3
  %87 = getelementptr inbounds i64, ptr %86, i64 0
  %88 = load i64, ptr %87, align 8, !tbaa !10
  %89 = load ptr, ptr %10, align 8, !tbaa !3
  %90 = getelementptr inbounds i64, ptr %89, i64 2
  store i64 %88, ptr %90, align 8, !tbaa !10
  %91 = load ptr, ptr %10, align 8, !tbaa !3
  %92 = getelementptr inbounds i64, ptr %91, i64 1
  %93 = load i64, ptr %92, align 8, !tbaa !10
  %94 = load ptr, ptr %10, align 8, !tbaa !3
  %95 = getelementptr inbounds i64, ptr %94, i64 3
  store i64 %93, ptr %95, align 8, !tbaa !10
  br label %264

96:                                               ; preds = %72, %64, %56, %48
  call void @llvm.lifetime.start.p0(i64 16, ptr %13) #14
  call void @llvm.lifetime.start.p0(i64 16, ptr %14) #14
  call void @llvm.lifetime.start.p0(i64 16, ptr %15) #14
  call void @llvm.lifetime.start.p0(i64 16, ptr %16) #14
  call void @llvm.lifetime.start.p0(i64 16, ptr %17) #14
  call void @llvm.lifetime.start.p0(i64 16, ptr %18) #14
  call void @llvm.lifetime.start.p0(i64 16, ptr %19) #14
  call void @llvm.lifetime.start.p0(i64 4, ptr %20) #14
  call void @llvm.lifetime.start.p0(i64 4, ptr %21) #14
  call void @llvm.lifetime.start.p0(i64 4, ptr %22) #14
  call void @llvm.lifetime.start.p0(i64 4, ptr %23) #14
  %97 = load ptr, ptr %7, align 8, !tbaa !3
  %98 = getelementptr inbounds i64, ptr %97, i64 0
  %99 = load i64, ptr %98, align 8, !tbaa !10
  %100 = load ptr, ptr %8, align 8, !tbaa !3
  %101 = getelementptr inbounds i64, ptr %100, i64 2
  %102 = load i64, ptr %101, align 8, !tbaa !10
  %103 = xor i64 %102, -1
  %104 = and i64 %99, %103
  %105 = getelementptr inbounds [2 x i64], ptr %13, i64 0, i64 0
  store i64 %104, ptr %105, align 16, !tbaa !10
  %106 = load ptr, ptr %7, align 8, !tbaa !3
  %107 = getelementptr inbounds i64, ptr %106, i64 1
  %108 = load i64, ptr %107, align 8, !tbaa !10
  %109 = load ptr, ptr %8, align 8, !tbaa !3
  %110 = getelementptr inbounds i64, ptr %109, i64 3
  %111 = load i64, ptr %110, align 8, !tbaa !10
  %112 = xor i64 %111, -1
  %113 = and i64 %108, %112
  %114 = getelementptr inbounds [2 x i64], ptr %13, i64 0, i64 1
  store i64 %113, ptr %114, align 8, !tbaa !10
  %115 = load ptr, ptr %7, align 8, !tbaa !3
  %116 = getelementptr inbounds i64, ptr %115, i64 2
  %117 = load i64, ptr %116, align 8, !tbaa !10
  %118 = load ptr, ptr %8, align 8, !tbaa !3
  %119 = getelementptr inbounds i64, ptr %118, i64 0
  %120 = load i64, ptr %119, align 8, !tbaa !10
  %121 = xor i64 %120, -1
  %122 = and i64 %117, %121
  %123 = getelementptr inbounds [2 x i64], ptr %14, i64 0, i64 0
  store i64 %122, ptr %123, align 16, !tbaa !10
  %124 = load ptr, ptr %7, align 8, !tbaa !3
  %125 = getelementptr inbounds i64, ptr %124, i64 3
  %126 = load i64, ptr %125, align 8, !tbaa !10
  %127 = load ptr, ptr %8, align 8, !tbaa !3
  %128 = getelementptr inbounds i64, ptr %127, i64 1
  %129 = load i64, ptr %128, align 8, !tbaa !10
  %130 = xor i64 %129, -1
  %131 = and i64 %126, %130
  %132 = getelementptr inbounds [2 x i64], ptr %14, i64 0, i64 1
  store i64 %131, ptr %132, align 8, !tbaa !10
  %133 = load ptr, ptr %8, align 8, !tbaa !3
  %134 = getelementptr inbounds i64, ptr %133, i64 0
  %135 = load i64, ptr %134, align 8, !tbaa !10
  %136 = load ptr, ptr %8, align 8, !tbaa !3
  %137 = getelementptr inbounds i64, ptr %136, i64 2
  %138 = load i64, ptr %137, align 8, !tbaa !10
  %139 = and i64 %135, %138
  %140 = getelementptr inbounds [2 x i64], ptr %16, i64 0, i64 0
  store i64 %139, ptr %140, align 16, !tbaa !10
  %141 = load ptr, ptr %8, align 8, !tbaa !3
  %142 = getelementptr inbounds i64, ptr %141, i64 1
  %143 = load i64, ptr %142, align 8, !tbaa !10
  %144 = load ptr, ptr %8, align 8, !tbaa !3
  %145 = getelementptr inbounds i64, ptr %144, i64 3
  %146 = load i64, ptr %145, align 8, !tbaa !10
  %147 = and i64 %143, %146
  %148 = getelementptr inbounds [2 x i64], ptr %16, i64 0, i64 1
  store i64 %147, ptr %148, align 8, !tbaa !10
  %149 = load ptr, ptr %12, align 8, !tbaa !22
  %150 = load i32, ptr %149, align 4, !tbaa !8
  store i32 %150, ptr %21, align 4, !tbaa !8
  %151 = getelementptr inbounds [2 x i64], ptr %13, i64 0, i64 0
  %152 = load ptr, ptr %8, align 8, !tbaa !3
  %153 = getelementptr inbounds i64, ptr %152, i64 0
  %154 = getelementptr inbounds [2 x i64], ptr %17, i64 0, i64 0
  %155 = load ptr, ptr %11, align 8, !tbaa !22
  %156 = load ptr, ptr %12, align 8, !tbaa !22
  call void @Abc_Tt7IsopCover(ptr noundef %151, ptr noundef %153, i32 noundef 7, ptr noundef %154, ptr noundef %155, ptr noundef %156)
  %157 = load ptr, ptr %12, align 8, !tbaa !22
  %158 = load i32, ptr %157, align 4, !tbaa !8
  store i32 %158, ptr %22, align 4, !tbaa !8
  %159 = getelementptr inbounds [2 x i64], ptr %14, i64 0, i64 0
  %160 = load ptr, ptr %8, align 8, !tbaa !3
  %161 = getelementptr inbounds i64, ptr %160, i64 2
  %162 = getelementptr inbounds [2 x i64], ptr %18, i64 0, i64 0
  %163 = load ptr, ptr %11, align 8, !tbaa !22
  %164 = load ptr, ptr %12, align 8, !tbaa !22
  call void @Abc_Tt7IsopCover(ptr noundef %159, ptr noundef %161, i32 noundef 7, ptr noundef %162, ptr noundef %163, ptr noundef %164)
  %165 = load ptr, ptr %12, align 8, !tbaa !22
  %166 = load i32, ptr %165, align 4, !tbaa !8
  store i32 %166, ptr %23, align 4, !tbaa !8
  %167 = load ptr, ptr %7, align 8, !tbaa !3
  %168 = getelementptr inbounds i64, ptr %167, i64 0
  %169 = load i64, ptr %168, align 8, !tbaa !10
  %170 = getelementptr inbounds [2 x i64], ptr %17, i64 0, i64 0
  %171 = load i64, ptr %170, align 16, !tbaa !10
  %172 = xor i64 %171, -1
  %173 = and i64 %169, %172
  %174 = load ptr, ptr %7, align 8, !tbaa !3
  %175 = getelementptr inbounds i64, ptr %174, i64 2
  %176 = load i64, ptr %175, align 8, !tbaa !10
  %177 = getelementptr inbounds [2 x i64], ptr %18, i64 0, i64 0
  %178 = load i64, ptr %177, align 16, !tbaa !10
  %179 = xor i64 %178, -1
  %180 = and i64 %176, %179
  %181 = or i64 %173, %180
  %182 = getelementptr inbounds [2 x i64], ptr %15, i64 0, i64 0
  store i64 %181, ptr %182, align 16, !tbaa !10
  %183 = load ptr, ptr %7, align 8, !tbaa !3
  %184 = getelementptr inbounds i64, ptr %183, i64 1
  %185 = load i64, ptr %184, align 8, !tbaa !10
  %186 = getelementptr inbounds [2 x i64], ptr %17, i64 0, i64 1
  %187 = load i64, ptr %186, align 8, !tbaa !10
  %188 = xor i64 %187, -1
  %189 = and i64 %185, %188
  %190 = load ptr, ptr %7, align 8, !tbaa !3
  %191 = getelementptr inbounds i64, ptr %190, i64 3
  %192 = load i64, ptr %191, align 8, !tbaa !10
  %193 = getelementptr inbounds [2 x i64], ptr %18, i64 0, i64 1
  %194 = load i64, ptr %193, align 8, !tbaa !10
  %195 = xor i64 %194, -1
  %196 = and i64 %192, %195
  %197 = or i64 %189, %196
  %198 = getelementptr inbounds [2 x i64], ptr %15, i64 0, i64 1
  store i64 %197, ptr %198, align 8, !tbaa !10
  %199 = getelementptr inbounds [2 x i64], ptr %15, i64 0, i64 0
  %200 = getelementptr inbounds [2 x i64], ptr %16, i64 0, i64 0
  %201 = getelementptr inbounds [2 x i64], ptr %19, i64 0, i64 0
  %202 = load ptr, ptr %11, align 8, !tbaa !22
  %203 = load ptr, ptr %12, align 8, !tbaa !22
  call void @Abc_Tt7IsopCover(ptr noundef %199, ptr noundef %200, i32 noundef 7, ptr noundef %201, ptr noundef %202, ptr noundef %203)
  %204 = getelementptr inbounds [2 x i64], ptr %19, i64 0, i64 0
  %205 = load i64, ptr %204, align 16, !tbaa !10
  %206 = getelementptr inbounds [2 x i64], ptr %17, i64 0, i64 0
  %207 = load i64, ptr %206, align 16, !tbaa !10
  %208 = or i64 %205, %207
  %209 = load ptr, ptr %10, align 8, !tbaa !3
  %210 = getelementptr inbounds i64, ptr %209, i64 0
  store i64 %208, ptr %210, align 8, !tbaa !10
  %211 = getelementptr inbounds [2 x i64], ptr %19, i64 0, i64 1
  %212 = load i64, ptr %211, align 8, !tbaa !10
  %213 = getelementptr inbounds [2 x i64], ptr %17, i64 0, i64 1
  %214 = load i64, ptr %213, align 8, !tbaa !10
  %215 = or i64 %212, %214
  %216 = load ptr, ptr %10, align 8, !tbaa !3
  %217 = getelementptr inbounds i64, ptr %216, i64 1
  store i64 %215, ptr %217, align 8, !tbaa !10
  %218 = getelementptr inbounds [2 x i64], ptr %19, i64 0, i64 0
  %219 = load i64, ptr %218, align 16, !tbaa !10
  %220 = getelementptr inbounds [2 x i64], ptr %18, i64 0, i64 0
  %221 = load i64, ptr %220, align 16, !tbaa !10
  %222 = or i64 %219, %221
  %223 = load ptr, ptr %10, align 8, !tbaa !3
  %224 = getelementptr inbounds i64, ptr %223, i64 2
  store i64 %222, ptr %224, align 8, !tbaa !10
  %225 = getelementptr inbounds [2 x i64], ptr %19, i64 0, i64 1
  %226 = load i64, ptr %225, align 8, !tbaa !10
  %227 = getelementptr inbounds [2 x i64], ptr %18, i64 0, i64 1
  %228 = load i64, ptr %227, align 8, !tbaa !10
  %229 = or i64 %226, %228
  %230 = load ptr, ptr %10, align 8, !tbaa !3
  %231 = getelementptr inbounds i64, ptr %230, i64 3
  store i64 %229, ptr %231, align 8, !tbaa !10
  %232 = load i32, ptr %21, align 4, !tbaa !8
  store i32 %232, ptr %20, align 4, !tbaa !8
  br label %233

233:                                              ; preds = %244, %96
  %234 = load i32, ptr %20, align 4, !tbaa !8
  %235 = load i32, ptr %22, align 4, !tbaa !8
  %236 = icmp slt i32 %234, %235
  br i1 %236, label %237, label %247

237:                                              ; preds = %233
  %238 = load ptr, ptr %11, align 8, !tbaa !22
  %239 = load i32, ptr %20, align 4, !tbaa !8
  %240 = sext i32 %239 to i64
  %241 = getelementptr inbounds i32, ptr %238, i64 %240
  %242 = load i32, ptr %241, align 4, !tbaa !8
  %243 = or i32 %242, 16384
  store i32 %243, ptr %241, align 4, !tbaa !8
  br label %244

244:                                              ; preds = %237
  %245 = load i32, ptr %20, align 4, !tbaa !8
  %246 = add nsw i32 %245, 1
  store i32 %246, ptr %20, align 4, !tbaa !8
  br label %233, !llvm.loop !292

247:                                              ; preds = %233
  %248 = load i32, ptr %22, align 4, !tbaa !8
  store i32 %248, ptr %20, align 4, !tbaa !8
  br label %249

249:                                              ; preds = %260, %247
  %250 = load i32, ptr %20, align 4, !tbaa !8
  %251 = load i32, ptr %23, align 4, !tbaa !8
  %252 = icmp slt i32 %250, %251
  br i1 %252, label %253, label %263

253:                                              ; preds = %249
  %254 = load ptr, ptr %11, align 8, !tbaa !22
  %255 = load i32, ptr %20, align 4, !tbaa !8
  %256 = sext i32 %255 to i64
  %257 = getelementptr inbounds i32, ptr %254, i64 %256
  %258 = load i32, ptr %257, align 4, !tbaa !8
  %259 = or i32 %258, 32768
  store i32 %259, ptr %257, align 4, !tbaa !8
  br label %260

260:                                              ; preds = %253
  %261 = load i32, ptr %20, align 4, !tbaa !8
  %262 = add nsw i32 %261, 1
  store i32 %262, ptr %20, align 4, !tbaa !8
  br label %249, !llvm.loop !293

263:                                              ; preds = %249
  call void @llvm.lifetime.end.p0(i64 4, ptr %23) #14
  call void @llvm.lifetime.end.p0(i64 4, ptr %22) #14
  call void @llvm.lifetime.end.p0(i64 4, ptr %21) #14
  call void @llvm.lifetime.end.p0(i64 4, ptr %20) #14
  call void @llvm.lifetime.end.p0(i64 16, ptr %19) #14
  call void @llvm.lifetime.end.p0(i64 16, ptr %18) #14
  call void @llvm.lifetime.end.p0(i64 16, ptr %17) #14
  call void @llvm.lifetime.end.p0(i64 16, ptr %16) #14
  call void @llvm.lifetime.end.p0(i64 16, ptr %15) #14
  call void @llvm.lifetime.end.p0(i64 16, ptr %14) #14
  call void @llvm.lifetime.end.p0(i64 16, ptr %13) #14
  br label %264

264:                                              ; preds = %263, %80
  br label %265

265:                                              ; preds = %264, %26
  ret void
}