; Function Attrs: inlinehint nofree nosync nounwind memory(argmem: readwrite) uwtable
define internal fastcc void @Abc_Tt8IsopCover(ptr noundef readonly captures(none) %0, ptr noundef readonly captures(none) %1, i32 noundef range(i32 0, 32) %2, ptr noundef nonnull captures(none) initializes((0, 32)) %3, ptr noundef nonnull %4, ptr noundef nonnull %5) unnamed_addr #16 {
  %7 = alloca [2 x i64], align 16
  %8 = alloca [2 x i64], align 16
  %9 = alloca [2 x i64], align 16
  %10 = alloca [2 x i64], align 16
  %11 = alloca [2 x i64], align 16
  %12 = alloca [2 x i64], align 16
  %13 = alloca [2 x i64], align 16
  %14 = icmp samesign ult i32 %2, 7
  br i1 %14, label %15, label %22

15:                                               ; preds = %6
  %16 = load i64, ptr %0, align 8, !tbaa !3
  %17 = load i64, ptr %1, align 8, !tbaa !3
  %18 = tail call fastcc i64 @Abc_Tt6IsopCover(i64 noundef %16, i64 noundef %17, i32 noundef %2, ptr noundef %4, ptr noundef %5)
  %19 = getelementptr inbounds nuw i8, ptr %3, i64 24
  store i64 %18, ptr %19, align 8, !tbaa !3
  %20 = getelementptr inbounds nuw i8, ptr %3, i64 16
  store i64 %18, ptr %20, align 8, !tbaa !3
  %21 = getelementptr inbounds nuw i8, ptr %3, i64 8
  store i64 %18, ptr %21, align 8, !tbaa !3
  store i64 %18, ptr %3, align 8, !tbaa !3
  br label %119

22:                                               ; preds = %6
  %23 = icmp eq i32 %2, 7
  br i1 %23, label %45, label %24

24:                                               ; preds = %22
  %25 = load i64, ptr %0, align 8, !tbaa !3
  %26 = getelementptr inbounds nuw i8, ptr %0, i64 16
  %27 = load i64, ptr %26, align 8, !tbaa !3
  %28 = icmp eq i64 %25, %27
  %29 = getelementptr inbounds nuw i8, ptr %0, i64 8
  %30 = load i64, ptr %29, align 8, !tbaa !3
  br i1 %28, label %31, label %._crit_edge82

._crit_edge82:                                    ; preds = %24
  %.pre83 = load i64, ptr %1, align 8, !tbaa !3
  %.phi.trans.insert85 = getelementptr inbounds nuw i8, ptr %0, i64 24
  %.pre86 = load i64, ptr %.phi.trans.insert85, align 8, !tbaa !3
  br label %51

31:                                               ; preds = %24
  %32 = getelementptr inbounds nuw i8, ptr %0, i64 24
  %33 = load i64, ptr %32, align 8, !tbaa !3
  %34 = icmp eq i64 %30, %33
  %.pre84 = load i64, ptr %1, align 8, !tbaa !3
  br i1 %34, label %35, label %51

35:                                               ; preds = %31
  %36 = getelementptr inbounds nuw i8, ptr %1, i64 16
  %37 = load i64, ptr %36, align 8, !tbaa !3
  %38 = icmp eq i64 %.pre84, %37
  br i1 %38, label %39, label %51

39:                                               ; preds = %35
  %40 = getelementptr inbounds nuw i8, ptr %1, i64 8
  %41 = load i64, ptr %40, align 8, !tbaa !3
  %42 = getelementptr inbounds nuw i8, ptr %1, i64 24
  %43 = load i64, ptr %42, align 8, !tbaa !3
  %44 = icmp eq i64 %41, %43
  br i1 %44, label %45, label %51

45:                                               ; preds = %39, %22
  tail call fastcc void @Abc_Tt7IsopCover(ptr noundef %0, ptr noundef %1, ptr noundef %3, ptr noundef %4, ptr noundef %5)
  %46 = load i64, ptr %3, align 8, !tbaa !3
  %47 = getelementptr inbounds nuw i8, ptr %3, i64 16
  store i64 %46, ptr %47, align 8, !tbaa !3
  %48 = getelementptr inbounds nuw i8, ptr %3, i64 8
  %49 = load i64, ptr %48, align 8, !tbaa !3
  %50 = getelementptr inbounds nuw i8, ptr %3, i64 24
  store i64 %49, ptr %50, align 8, !tbaa !3
  br label %119

51:                                               ; preds = %._crit_edge82, %39, %35, %31
  %52 = phi i64 [ %.pre86, %._crit_edge82 ], [ %30, %39 ], [ %30, %35 ], [ %33, %31 ]
  %53 = phi i64 [ %.pre83, %._crit_edge82 ], [ %.pre84, %39 ], [ %.pre84, %35 ], [ %.pre84, %31 ]
  call void @llvm.lifetime.start.p0(i64 16, ptr nonnull %7) #29
  call void @llvm.lifetime.start.p0(i64 16, ptr nonnull %8) #29
  call void @llvm.lifetime.start.p0(i64 16, ptr nonnull %9) #29
  call void @llvm.lifetime.start.p0(i64 16, ptr nonnull %10) #29
  call void @llvm.lifetime.start.p0(i64 16, ptr nonnull %11) #29
  call void @llvm.lifetime.start.p0(i64 16, ptr nonnull %12) #29
  call void @llvm.lifetime.start.p0(i64 16, ptr nonnull %13) #29
  %54 = getelementptr inbounds nuw i8, ptr %1, i64 16
  %55 = load i64, ptr %54, align 8, !tbaa !3
  %56 = xor i64 %55, -1
  %57 = and i64 %25, %56
  store i64 %57, ptr %7, align 16, !tbaa !3
  %58 = getelementptr inbounds nuw i8, ptr %0, i64 8
  %59 = getelementptr inbounds nuw i8, ptr %1, i64 24
  %60 = load i64, ptr %59, align 8, !tbaa !3
  %61 = xor i64 %60, -1
  %62 = and i64 %30, %61
  %63 = getelementptr inbounds nuw i8, ptr %7, i64 8
  store i64 %62, ptr %63, align 8, !tbaa !3
  %64 = xor i64 %53, -1
  %65 = and i64 %27, %64
  store i64 %65, ptr %8, align 16, !tbaa !3
  %66 = getelementptr inbounds nuw i8, ptr %0, i64 24
  %67 = getelementptr inbounds nuw i8, ptr %1, i64 8
  %68 = load i64, ptr %67, align 8, !tbaa !3
  %69 = xor i64 %68, -1
  %70 = and i64 %52, %69
  %71 = getelementptr inbounds nuw i8, ptr %8, i64 8
  store i64 %70, ptr %71, align 8, !tbaa !3
  %72 = and i64 %53, %55
  store i64 %72, ptr %10, align 16, !tbaa !3
  %73 = and i64 %68, %60
  %74 = getelementptr inbounds nuw i8, ptr %10, i64 8
  store i64 %73, ptr %74, align 8, !tbaa !3
  %75 = load i32, ptr %5, align 4, !tbaa !12
  call fastcc void @Abc_Tt7IsopCover(ptr noundef nonnull %7, ptr noundef nonnull %1, ptr noundef %11, ptr noundef %4, ptr noundef %5)
  %76 = load i32, ptr %5, align 4, !tbaa !12
  call fastcc void @Abc_Tt7IsopCover(ptr noundef nonnull %8, ptr noundef nonnull %54, ptr noundef %12, ptr noundef %4, ptr noundef %5)
  %77 = load i32, ptr %5, align 4, !tbaa !12
  %78 = load i64, ptr %0, align 8, !tbaa !3
  %79 = load i64, ptr %11, align 16, !tbaa !3
  %80 = xor i64 %79, -1
  %81 = and i64 %78, %80
  %82 = load i64, ptr %26, align 8, !tbaa !3
  %83 = load i64, ptr %12, align 16, !tbaa !3
  %84 = xor i64 %83, -1
  %85 = and i64 %82, %84
  %86 = or i64 %85, %81
  store i64 %86, ptr %9, align 16, !tbaa !3
  %87 = load i64, ptr %58, align 8, !tbaa !3
  %88 = getelementptr inbounds nuw i8, ptr %11, i64 8
  %89 = load i64, ptr %88, align 8, !tbaa !3
  %90 = xor i64 %89, -1
  %91 = and i64 %87, %90
  %92 = load i64, ptr %66, align 8, !tbaa !3
  %93 = getelementptr inbounds nuw i8, ptr %12, i64 8
  %94 = load i64, ptr %93, align 8, !tbaa !3
  %95 = xor i64 %94, -1
  %96 = and i64 %92, %95
  %97 = or i64 %96, %91
  %98 = getelementptr inbounds nuw i8, ptr %9, i64 8
  store i64 %97, ptr %98, align 8, !tbaa !3
  call fastcc void @Abc_Tt7IsopCover(ptr noundef nonnull %9, ptr noundef nonnull %10, ptr noundef %13, ptr noundef %4, ptr noundef %5)
  %99 = load i64, ptr %13, align 16, !tbaa !3
  %100 = or i64 %99, %79
  store i64 %100, ptr %3, align 8, !tbaa !3
  %101 = getelementptr inbounds nuw i8, ptr %13, i64 8
  %102 = load i64, ptr %101, align 8, !tbaa !3
  %103 = or i64 %102, %89
  %104 = getelementptr inbounds nuw i8, ptr %3, i64 8
  store i64 %103, ptr %104, align 8, !tbaa !3
  %105 = or i64 %99, %83
  %106 = getelementptr inbounds nuw i8, ptr %3, i64 16
  store i64 %105, ptr %106, align 8, !tbaa !3
  %107 = or i64 %102, %94
  %108 = getelementptr inbounds nuw i8, ptr %3, i64 24
  store i64 %107, ptr %108, align 8, !tbaa !3
  %109 = icmp slt i32 %75, %76
  br i1 %109, label %.lr.ph.preheader, label %.preheader

.lr.ph.preheader:                                 ; preds = %51
  %110 = sext i32 %75 to i64
  %wide.trip.count = sext i32 %76 to i64
  br label %.lr.ph

.preheader:                                       ; preds = %.lr.ph, %51
  %111 = icmp slt i32 %76, %77
  br i1 %111, label %.lr.ph75.preheader, label %._crit_edge

.lr.ph75.preheader:                               ; preds = %.preheader
  %112 = sext i32 %76 to i64
  %wide.trip.count80 = sext i32 %77 to i64
  br label %.lr.ph75

.lr.ph:                                           ; preds = %.lr.ph.preheader, %.lr.ph
  %indvars.iv = phi i64 [ %110, %.lr.ph.preheader ], [ %indvars.iv.next, %.lr.ph ]
  %113 = getelementptr inbounds i32, ptr %4, i64 %indvars.iv
  %114 = load i32, ptr %113, align 4, !tbaa !12
  %115 = or i32 %114, 16384
  store i32 %115, ptr %113, align 4, !tbaa !12
  %indvars.iv.next = add nsw i64 %indvars.iv, 1
  %exitcond.not = icmp eq i64 %indvars.iv.next, %wide.trip.count
  br i1 %exitcond.not, label %.preheader, label %.lr.ph, !llvm.loop !307

.lr.ph75:                                         ; preds = %.lr.ph75.preheader, %.lr.ph75
  %indvars.iv77 = phi i64 [ %112, %.lr.ph75.preheader ], [ %indvars.iv.next78, %.lr.ph75 ]
  %116 = getelementptr inbounds i32, ptr %4, i64 %indvars.iv77
  %117 = load i32, ptr %116, align 4, !tbaa !12
  %118 = or i32 %117, 32768
  store i32 %118, ptr %116, align 4, !tbaa !12
  %indvars.iv.next78 = add nsw i64 %indvars.iv77, 1
  %exitcond81.not = icmp eq i64 %indvars.iv.next78, %wide.trip.count80
  br i1 %exitcond81.not, label %._crit_edge, label %.lr.ph75, !llvm.loop !308

._crit_edge:                                      ; preds = %.lr.ph75, %.preheader
  call void @llvm.lifetime.end.p0(i64 16, ptr nonnull %13) #29
  call void @llvm.lifetime.end.p0(i64 16, ptr nonnull %12) #29
  call void @llvm.lifetime.end.p0(i64 16, ptr nonnull %11) #29
  call void @llvm.lifetime.end.p0(i64 16, ptr nonnull %10) #29
  call void @llvm.lifetime.end.p0(i64 16, ptr nonnull %9) #29
  call void @llvm.lifetime.end.p0(i64 16, ptr nonnull %8) #29
  call void @llvm.lifetime.end.p0(i64 16, ptr nonnull %7) #29
  br label %119

119:                                              ; preds = %45, %._crit_edge, %15
  ret void
}